target datalayout = "e-m:e-p270:32:32-p271:32:32-p272:64:64-i64:64-i128:128-f80:128-n8:16:32:64-S128"
target triple = "x86_64-pc-linux-gnu"

@stderr = external global ptr, align 8
@.str.60 = private unnamed_addr constant [20 x i8] c"Handshake started.\0A\00", align 1
@.str.61 = private unnamed_addr constant [17 x i8] c"Handshake done.\0A\00", align 1
@.str.62 = private unnamed_addr constant [24 x i8] c"Handshake progress: %s\0A\00", align 1

; Function Attrs: mustprogress nounwind uwtable
define internal void @_ZL12InfoCallbackPK6ssl_stii(ptr noundef %0, i32 noundef %1, i32 noundef %2) #0 {
  %4 = alloca ptr, align 8
  %5 = alloca i32, align 4
  %6 = alloca i32, align 4
  store ptr %0, ptr %4, align 8, !tbaa !33
  store i32 %1, ptr %5, align 4, !tbaa !19
  store i32 %2, ptr %6, align 4, !tbaa !19
  %7 = load i32, ptr %5, align 4, !tbaa !19
  switch i32 %7, label %19 [
    i32 16, label %8
    i32 32, label %11
    i32 8193, label %14
  ]

8:                                                ; preds = %3
  %9 = load ptr, ptr @stderr, align 8, !tbaa !11
  %10 = call i32 (ptr, ptr, ...) @fprintf(ptr noundef %9, ptr noundef @.str.60) #13
  br label %19

11:                                               ; preds = %3
  %12 = load ptr, ptr @stderr, align 8, !tbaa !11
  %13 = call i32 (ptr, ptr, ...) @fprintf(ptr noundef %12, ptr noundef @.str.61) #13
  br label %19

14:                                               ; preds = %3
  %15 = load ptr, ptr @stderr, align 8, !tbaa !11
  %16 = load ptr, ptr %4, align 8, !tbaa !33
  %17 = call ptr @SSL_state_string_long(ptr noundef %16)
  %18 = call i32 (ptr, ptr, ...) @fprintf(ptr noundef %15, ptr noundef @.str.62, ptr noundef %17) #13
  br label %19

19:                                               ; preds = %3, %14, %11, %8
  ret void
}