; Function Attrs: mustprogress nounwind uwtable
define internal void @_ZL12InfoCallbackPK6ssl_stii(ptr noundef %0, i32 noundef %1, i32 %2) #0 {
  switch i32 %1, label %14 [
    i32 16, label %4
    i32 32, label %7
    i32 8193, label %10
  ]

4:                                                ; preds = %3
  %5 = load ptr, ptr @stderr, align 8, !tbaa !17
  %6 = tail call i64 @fwrite(ptr nonnull @.str.60, i64 19, i64 1, ptr %5) #21
  br label %14

7:                                                ; preds = %3
  %8 = load ptr, ptr @stderr, align 8, !tbaa !17
  %9 = tail call i64 @fwrite(ptr nonnull @.str.61, i64 16, i64 1, ptr %8) #21
  br label %14

10:                                               ; preds = %3
  %11 = load ptr, ptr @stderr, align 8, !tbaa !17
  %12 = tail call ptr @SSL_state_string_long(ptr noundef %0) #20
  %13 = tail call i32 (ptr, ptr, ...) @fprintf(ptr noundef %11, ptr noundef nonnull @.str.62, ptr noundef %12) #23
  br label %14

14:                                               ; preds = %10, %7, %4, %3
  ret void
}